Certificate:
    Data:
        Version: 3 (0x2)
        Serial Number: 4096 (0x1000)
        Signature Algorithm: sha256WithRSAEncryption
        Issuer: C=IN, ST=Bihar, L=Patna, O=DemoOrg, OU=RootCA, CN=Demo Root CA
        Validity
            Not Before: Aug  5 09:16:10 2025 GMT
            Not After : Aug  3 09:16:10 2035 GMT
        Subject: C=IN, ST=Bihar, O=DemoOrg, CN=Demo Intermediate CA
        Subject Public Key Info:
            Public Key Algorithm: rsaEncryption
                Public-Key: (4096 bit)
                Modulus:
                    00:cf:36:7d:24:f0:97:a3:55:ae:e0:d3:c7:b9:b8:
                    86:3b:56:e5:bc:f2:71:2b:81:61:a5:dc:0b:b9:fa:
                    ce:1b:c2:59:22:72:ca:02:08:34:09:c8:32:40:93:
                    2f:a1:d0:2a:a6:a3:90:7a:67:52:4f:a3:ff:de:c1:
                    14:28:27:90:0b:68:f9:39:9a:87:1d:41:f7:7a:6e:
                    71:95:86:8e:68:0b:22:12:aa:e8:c9:f6:85:1c:b1:
                    46:e1:33:c1:45:69:1a:34:21:f3:71:78:33:eb:e9:
                    b1:a7:b6:2d:2d:50:70:77:42:17:c2:37:98:65:69:
                    3a:7f:c9:18:4e:8b:db:06:8f:0f:16:af:ef:5b:25:
                    5b:01:73:6e:54:88:99:c1:fa:25:c4:cf:ce:92:c1:
                    3b:60:02:8a:8d:a2:10:60:78:3e:b4:5f:c1:d5:03:
                    d7:cb:3b:8c:d6:8d:9d:54:ab:f7:94:9c:cb:4e:d2:
                    84:95:5c:d2:9e:cb:3b:e8:e3:d9:13:07:e2:1c:b9:
                    2f:2f:78:2e:9d:8c:68:c6:f6:f6:8f:cb:a5:b0:63:
                    5e:f5:d8:8f:2d:cd:a1:1b:7a:24:26:b1:8b:13:5a:
                    6d:1f:44:82:7f:95:2a:87:51:97:67:19:64:91:37:
                    dd:37:4c:e7:4b:57:f9:e3:7a:bf:3e:53:4e:16:13:
                    81:87:05:33:a2:dd:57:40:42:f6:9f:ce:f7:5e:32:
                    1a:34:e7:98:90:a3:2c:cb:a1:05:fc:91:44:73:1e:
                    4f:95:be:f1:ef:dc:60:6a:49:8e:96:ad:48:c1:e3:
                    8e:7a:69:4d:52:d7:d6:e1:54:c1:bd:de:dd:81:c6:
                    4a:d3:c3:69:ab:fb:82:36:02:a7:0a:6b:14:1b:a5:
                    5c:6c:7b:9f:d9:61:93:c3:85:72:59:70:9d:ce:9e:
                    02:3b:11:56:09:de:22:e6:7e:bc:35:0f:a6:b9:16:
                    c7:2c:d8:60:7c:a8:8a:cc:ca:c8:ce:42:5c:e0:da:
                    1c:a4:28:c3:99:6b:cf:a1:88:ea:1e:b9:b5:92:a0:
                    22:e4:cf:21:26:0f:b9:0a:79:9e:26:a8:09:ed:04:
                    bf:0c:31:3c:0c:d1:96:f9:07:4f:1f:4d:d3:20:7d:
                    be:42:b1:35:62:96:ca:8c:e2:04:82:5f:bc:9a:ed:
                    ae:12:32:6f:28:bf:73:d2:21:fb:b7:36:16:2b:bd:
                    6f:46:73:35:fc:29:99:bd:0a:23:b2:71:f1:13:f5:
                    e4:5a:d5:de:56:99:6f:0f:c2:1e:d1:57:1d:d2:af:
                    5d:bb:f6:d7:10:6a:9a:ab:aa:36:0b:1b:ab:9b:20:
                    1e:da:21:a2:0c:7f:7d:8e:6c:fa:de:cb:ff:eb:0d:
                    32:34:47
                Exponent: 65537 (0x10001)
        X509v3 extensions:
            X509v3 Basic Constraints: critical
                CA:TRUE
            X509v3 Key Usage: critical
                Certificate Sign, CRL Sign
            X509v3 Subject Key Identifier: 
                C5:B1:7C:DE:30:52:65:04:35:E0:C1:3A:96:22:A5:D0:33:E6:1E:99
            X509v3 Authority Key Identifier: 
                40:E1:3D:A0:6C:93:D3:52:7E:59:46:02:40:DB:5A:8E:99:3B:B9:F6
    Signature Algorithm: sha256WithRSAEncryption
    Signature Value:
        16:74:c7:6d:6e:bd:1c:0b:e3:93:b6:a9:bc:2b:47:8c:79:82:
        e6:b1:36:75:7b:3b:30:84:62:68:86:0f:5e:87:e6:7e:59:61:
        91:80:78:ce:2d:36:57:61:7a:bd:06:02:a0:55:c7:f2:5a:79:
        61:81:ef:3a:02:69:05:90:6a:f8:5a:39:56:05:fe:0f:5c:ff:
        91:0a:13:a6:b4:88:77:c2:3c:1d:7f:98:ea:6b:8b:e9:7b:ef:
        03:e2:9e:c9:a2:71:df:e7:f1:1c:e5:80:ea:2d:88:e2:21:a7:
        12:4b:14:ee:fc:81:7c:52:58:ff:b4:84:eb:f3:a0:13:ec:db:
        42:48:c0:ec:dc:69:ca:41:ca:15:72:d5:ee:cd:09:20:f8:31:
        94:0f:b4:8b:eb:9f:bb:71:9e:e6:00:a5:0d:a5:4f:f4:33:d5:
        ca:3e:0f:33:f5:04:36:af:89:24:3d:79:0f:ba:0e:ca:1d:b9:
        28:34:70:53:14:0b:c8:53:66:d3:9e:ce:e1:75:71:37:42:fd:
        b8:d0:47:be:5f:9a:01:a0:9c:14:09:e5:a8:d0:37:9b:94:d7:
        10:8d:18:29:32:a2:ed:f2:ce:68:0e:bf:5e:d8:e5:1d:39:36:
        64:60:12:9e:ef:4d:fc:1f:d6:d2:b2:d8:f8:3f:d0:e6:e3:e4:
        2d:bc:80:8b:ff:2d:2a:5d:96:07:77:8b:42:5d:2f:c1:86:f0:
        3f:c8:ac:5b:89:d1:0c:8d:37:69:2a:d9:28:84:cd:46:33:ce:
        46:19:bb:54:64:c6:66:b6:b1:7b:88:19:b6:34:b5:00:8f:d3:
        bf:72:a4:04:7d:8f:b3:47:02:d7:b5:0a:70:19:79:3b:d1:0e:
        da:92:17:0d:55:fc:43:bb:78:59:5b:7b:02:65:5d:14:f2:d4:
        24:09:9c:22:61:fe:ab:8c:12:4c:fa:97:07:03:cd:2c:29:ac:
        b7:e2:d0:9d:76:ba:eb:a2:b1:a7:41:7b:6b:bd:85:71:c8:4b:
        f4:98:bb:63:c3:0f:c4:bf:db:16:3d:02:01:50:be:d0:4b:22:
        e8:f0:d3:3a:8c:76:6e:60:7b:32:39:1c:92:bc:5f:2e:ae:4f:
        db:11:1d:6b:4e:fe:75:e0:b0:06:d0:4c:4c:71:34:4a:d6:55:
        43:54:33:30:ee:62:c7:77:42:43:2c:dd:3d:d7:ae:99:77:13:
        6e:aa:36:f5:f6:a6:c7:1a:8f:cb:79:a4:8c:6f:7d:01:76:10:
        43:ff:74:e0:82:db:db:61:fe:a2:ae:d5:75:cf:a9:80:00:65:
        a8:cc:18:b5:20:14:44:3d:86:f5:79:f4:ad:2e:61:df:fe:45:
        51:81:19:ab:9f:ab:e9:9a
-----BEGIN CERTIFICATE-----
MIIFlDCCA3ygAwIBAgICEAAwDQYJKoZIhvcNAQELBQAwZzELMAkGA1UEBhMCSU4x
DjAMBgNVBAgMBUJpaGFyMQ4wDAYDVQQHDAVQYXRuYTEQMA4GA1UECgwHRGVtb09y
ZzEPMA0GA1UECwwGUm9vdENBMRUwEwYDVQQDDAxEZW1vIFJvb3QgQ0EwHhcNMjUw
ODA1MDkxNjEwWhcNMzUwODAzMDkxNjEwWjBOMQswCQYDVQQGEwJJTjEOMAwGA1UE
CAwFQmloYXIxEDAOBgNVBAoMB0RlbW9PcmcxHTAbBgNVBAMMFERlbW8gSW50ZXJt
ZWRpYXRlIENBMIICIjANBgkqhkiG9w0BAQEFAAOCAg8AMIICCgKCAgEAzzZ9JPCX
o1Wu4NPHubiGO1blvPJxK4FhpdwLufrOG8JZInLKAgg0CcgyQJMvodAqpqOQemdS
T6P/3sEUKCeQC2j5OZqHHUH3em5xlYaOaAsiEqroyfaFHLFG4TPBRWkaNCHzcXgz
6+mxp7YtLVBwd0IXwjeYZWk6f8kYTovbBo8PFq/vWyVbAXNuVIiZwfolxM/OksE7
YAKKjaIQYHg+tF/B1QPXyzuM1o2dVKv3lJzLTtKElVzSnss76OPZEwfiHLkvL3gu
nYxoxvb2j8ulsGNe9diPLc2hG3okJrGLE1ptH0SCf5Uqh1GXZxlkkTfdN0znS1f5
43q/PlNOFhOBhwUzot1XQEL2n873XjIaNOeYkKMsy6EF/JFEcx5Plb7x79xgakmO
lq1IweOOemlNUtfW4VTBvd7dgcZK08Npq/uCNgKnCmsUG6VcbHuf2WGTw4VyWXCd
zp4COxFWCd4i5n68NQ+muRbHLNhgfKiKzMrIzkJc4NocpCjDmWvPoYjqHrm1kqAi
5M8hJg+5CnmeJqgJ7QS/DDE8DNGW+QdPH03TIH2+QrE1YpbKjOIEgl+8mu2uEjJv
KL9z0iH7tzYWK71vRnM1/CmZvQojsnHxE/XkWtXeVplvD8Ie0Vcd0q9du/bXEGqa
q6o2CxurmyAe2iGiDH99jmz63sv/6w0yNEcCAwEAAaNjMGEwDwYDVR0TAQH/BAUw
AwEB/zAOBgNVHQ8BAf8EBAMCAQYwHQYDVR0OBBYEFMWxfN4wUmUENeDBOpYipdAz
5h6ZMB8GA1UdIwQYMBaAFEDhPaBsk9NSfllGAkDbWo6ZO7n2MA0GCSqGSIb3DQEB
CwUAA4ICAQAWdMdtbr0cC+OTtqm8K0eMeYLmsTZ1ezswhGJohg9eh+Z+WWGRgHjO
LTZXYXq9BgKgVcfyWnlhge86AmkFkGr4WjlWBf4PXP+RChOmtIh3wjwdf5jqa4vp
e+8D4p7JonHf5/Ec5YDqLYjiIacSSxTu/IF8Ulj/tITr86AT7NtCSMDs3GnKQcoV
ctXuzQkg+DGUD7SL65+7cZ7mAKUNpU/0M9XKPg8z9QQ2r4kkPXkPug7KHbkoNHBT
FAvIU2bTns7hdXE3Qv240Ee+X5oBoJwUCeWo0DeblNcQjRgpMqLt8s5oDr9e2OUd
OTZkYBKe7038H9bSstj4P9Dm4+QtvICL/y0qXZYHd4tCXS/BhvA/yKxbidEMjTdp
KtkohM1GM85GGbtUZMZmtrF7iBm2NLUAj9O/cqQEfY+zRwLXtQpwGXk70Q7akhcN
VfxDu3hZW3sCZV0U8tQkCZwiYf6rjBJM+pcHA80sKay34tCddrrrorGnQXtrvYVx
yEv0mLtjww/Ev9sWPQIBUL7QSyLo8NM6jHZuYHsyORySvF8urk/bER1rTv514LAG
0ExMcTRK1lVDVDMw7mLHd0JDLN09166ZdxNuqjb19qbHGo/LeaSMb30BdhBD/3Tg
gtvbYf6irtV1z6mAAGWozBi1IBREPYb1efStLmHf/kVRgRmrn6vpmg==
-----END CERTIFICATE-----
