Certificate:
    Data:
        Version: 3 (0x2)
        Serial Number: 4097 (0x1001)
        Signature Algorithm: sha256WithRSAEncryption
        Issuer: C=IN, ST=Bihar, O=DemoOrg, CN=Demo Intermediate CA
        Validity
            Not Before: Aug  5 11:20:03 2025 GMT
            Not After : Aug  3 11:20:03 2035 GMT
        Subject: 
        Subject Public Key Info:
            Public Key Algorithm: rsaEncryption
                Public-Key: (2048 bit)
                Modulus:
                    00:bd:e6:5f:96:d5:02:d6:57:29:2a:df:f7:0d:33:
                    62:7b:d3:bd:71:5a:9f:70:2f:e9:0f:6c:73:80:8e:
                    05:c0:2b:e7:47:33:8f:80:c9:4f:e1:50:2e:58:84:
                    14:d4:95:3e:6f:e0:c6:9c:c7:cb:bc:49:d6:06:13:
                    79:af:cf:8c:95:dd:2e:64:ba:84:bb:fe:9f:7f:64:
                    bc:9b:4f:bb:7f:ff:cf:e5:5c:81:9a:9d:33:69:0a:
                    aa:62:c8:55:d4:ff:ce:38:0b:a7:d9:cf:dd:f4:0c:
                    5f:83:df:2d:96:56:08:44:b2:7d:1e:63:3a:e5:cf:
                    84:60:ec:eb:2d:cc:1e:ef:11:5b:db:f6:82:93:c7:
                    f1:95:c8:3d:ed:90:00:cc:7d:25:c4:ef:61:de:79:
                    4c:64:37:51:3f:73:c7:ce:b3:5b:d1:27:d8:d7:e3:
                    49:d2:84:44:e3:62:57:42:95:eb:b0:6a:cc:dc:8d:
                    a6:37:89:3c:68:99:72:c4:cd:56:c4:93:67:85:7b:
                    5b:ff:2b:49:ca:c3:bb:ec:06:8d:bf:5e:3c:33:45:
                    0f:27:99:63:c1:cc:9c:8f:83:59:6a:b3:f1:dc:66:
                    4c:55:c6:8d:44:4b:d1:94:50:bd:9c:c0:fd:41:16:
                    45:af:e6:c3:09:42:e1:ca:21:3a:0e:c7:42:ff:5d:
                    3e:87
                Exponent: 65537 (0x10001)
        X509v3 extensions:
            X509v3 Basic Constraints: 
                CA:FALSE
            Netscape Cert Type: 
                SSL Server
            Netscape Comment: 
                OpenSSL Generated Server Certificate
            X509v3 Subject Key Identifier: 
                09:D1:23:A9:5B:DE:21:8E:B5:51:EE:50:0E:E3:99:31:9A:C6:6E:C6
            X509v3 Authority Key Identifier: 
                C5:B1:7C:DE:30:52:65:04:35:E0:C1:3A:96:22:A5:D0:33:E6:1E:99
            X509v3 Key Usage: critical
                Digital Signature, Key Encipherment
            X509v3 Extended Key Usage: 
                TLS Web Server Authentication
    Signature Algorithm: sha256WithRSAEncryption
    Signature Value:
        c1:8e:97:29:f6:b1:f8:e0:94:bc:bd:93:17:1c:52:a0:06:dd:
        b6:f9:49:69:63:7a:17:1b:7e:70:02:45:de:23:7c:70:22:b5:
        80:99:d4:b9:26:83:34:86:21:0c:ba:14:c4:68:49:66:58:99:
        4a:c8:fe:65:6c:5f:40:de:4a:8c:c3:bd:86:a4:81:9b:00:6b:
        d2:d6:9e:69:42:0c:c1:d4:ff:aa:8a:89:5a:49:13:68:9e:66:
        13:bd:d5:34:e3:09:02:b6:ce:86:48:6b:d6:c2:a2:4b:7f:14:
        c7:8d:6b:86:a3:2c:b9:be:f1:3a:26:e3:1c:15:3c:58:84:f7:
        0e:54:20:59:63:70:b8:db:92:ee:98:e4:2f:9a:09:3b:ef:7f:
        c7:8a:ce:6f:59:92:e1:d4:99:7f:89:fe:f7:93:6e:e3:7c:70:
        1d:07:d8:4d:c3:d6:e3:c8:37:2c:cb:20:bb:d7:d8:2a:91:74:
        48:e0:03:52:2c:ea:26:ee:72:22:39:43:41:4d:b8:de:79:2b:
        53:3b:4b:f2:57:fd:f6:1f:04:d3:3a:9c:f5:73:b6:6b:bb:57:
        09:b5:df:25:23:93:7c:3c:a4:99:48:37:5a:4a:65:36:f8:ff:
        6e:7d:65:90:b6:af:d3:d2:6f:e3:b1:b9:ce:be:d2:16:b3:75:
        ac:93:54:63:a1:31:c2:4d:cc:a3:30:51:05:cc:5c:60:bb:04:
        0b:6d:f3:a3:32:00:23:87:c8:84:ed:da:8b:4d:48:12:40:c4:
        bf:94:9f:bb:76:8d:99:23:0f:8c:d6:57:b7:44:65:df:ce:01:
        3f:f7:dd:85:d9:e5:1d:6a:43:f3:0c:de:aa:c4:bc:5b:3e:1d:
        c8:94:0f:7a:d4:8e:55:2f:75:35:6e:a4:2d:8a:23:de:7f:81:
        60:d9:e1:0d:99:4e:1c:8d:5b:5f:9d:3a:69:e4:cf:29:8a:1f:
        62:72:63:10:fd:cb:63:99:ed:9e:07:ac:0a:20:72:1c:82:be:
        af:e0:71:24:e3:4e:5b:6e:4b:3f:32:14:ca:9f:b3:4c:e8:1c:
        4b:04:46:52:1d:20:5d:80:7c:b0:84:95:cd:58:b1:96:0f:27:
        e4:71:2d:9d:7b:d4:11:1d:45:a5:8b:9f:95:c5:8b:3c:18:1a:
        69:4b:0e:c3:4f:56:ce:1e:cf:75:6f:5d:98:2a:8b:20:06:e0:
        9e:27:77:85:59:24:87:75:3c:17:36:b2:84:0d:d8:38:01:17:
        d2:4c:ff:08:f5:45:b2:39:a0:32:91:dc:59:b5:fb:30:9b:59:
        37:37:b9:98:a8:95:c2:21:21:ca:cb:a8:66:35:c7:93:b2:68:
        fe:69:6c:b7:5f:57:ed:f6
-----BEGIN CERTIFICATE-----
MIIEhjCCAm6gAwIBAgICEAEwDQYJKoZIhvcNAQELBQAwTjELMAkGA1UEBhMCSU4x
DjAMBgNVBAgMBUJpaGFyMRAwDgYDVQQKDAdEZW1vT3JnMR0wGwYDVQQDDBREZW1v
IEludGVybWVkaWF0ZSBDQTAeFw0yNTA4MDUxMTIwMDNaFw0zNTA4MDMxMTIwMDNa
MAAwggEiMA0GCSqGSIb3DQEBAQUAA4IBDwAwggEKAoIBAQC95l+W1QLWVykq3/cN
M2J7071xWp9wL+kPbHOAjgXAK+dHM4+AyU/hUC5YhBTUlT5v4Macx8u8SdYGE3mv
z4yV3S5kuoS7/p9/ZLybT7t//8/lXIGanTNpCqpiyFXU/844C6fZz930DF+D3y2W
VghEsn0eYzrlz4Rg7OstzB7vEVvb9oKTx/GVyD3tkADMfSXE72HeeUxkN1E/c8fO
s1vRJ9jX40nShETjYldCleuwaszcjaY3iTxomXLEzVbEk2eFe1v/K0nKw7vsBo2/
XjwzRQ8nmWPBzJyPg1lqs/HcZkxVxo1ES9GUUL2cwP1BFkWv5sMJQuHKIToOx0L/
XT6HAgMBAAGjgbswgbgwCQYDVR0TBAIwADARBglghkgBhvhCAQEEBAMCBkAwMwYJ
YIZIAYb4QgENBCYWJE9wZW5TU0wgR2VuZXJhdGVkIFNlcnZlciBDZXJ0aWZpY2F0
ZTAdBgNVHQ4EFgQUCdEjqVveIY61Ue5QDuOZMZrGbsYwHwYDVR0jBBgwFoAUxbF8
3jBSZQQ14ME6liKl0DPmHpkwDgYDVR0PAQH/BAQDAgWgMBMGA1UdJQQMMAoGCCsG
AQUFBwMBMA0GCSqGSIb3DQEBCwUAA4ICAQDBjpcp9rH44JS8vZMXHFKgBt22+Ulp
Y3oXG35wAkXeI3xwIrWAmdS5JoM0hiEMuhTEaElmWJlKyP5lbF9A3kqMw72GpIGb
AGvS1p5pQgzB1P+qiolaSRNonmYTvdU04wkCts6GSGvWwqJLfxTHjWuGoyy5vvE6
JuMcFTxYhPcOVCBZY3C425LumOQvmgk773/His5vWZLh1Jl/if73k27jfHAdB9hN
w9bjyDcsyyC719gqkXRI4ANSLOom7nIiOUNBTbjeeStTO0vyV/32HwTTOpz1c7Zr
u1cJtd8lI5N8PKSZSDdaSmU2+P9ufWWQtq/T0m/jsbnOvtIWs3Wsk1RjoTHCTcyj
MFEFzFxguwQLbfOjMgAjh8iE7dqLTUgSQMS/lJ+7do2ZIw+M1le3RGXfzgE/992F
2eUdakPzDN6qxLxbPh3IlA961I5VL3U1bqQtiiPef4Fg2eENmU4cjVtfnTpp5M8p
ih9icmMQ/ctjme2eB6wKIHIcgr6v4HEk405bbks/MhTKn7NM6BxLBEZSHSBdgHyw
hJXNWLGWDyfkcS2de9QRHUWli5+VxYs8GBppSw7DT1bOHs91b12YKosgBuCeJ3eF
WSSHdTwXNrKEDdg4ARfSTP8I9UWyOaAykdxZtfswm1k3N7mYqJXCISHKy6hmNceT
smj+aWy3X1ft9g==
-----END CERTIFICATE-----
