Certificate:
    Data:
        Version: 3 (0x2)
        Serial Number: 4099 (0x1003)
        Signature Algorithm: sha256WithRSAEncryption
        Issuer: C=IN, ST=Bihar, O=DemoOrg, CN=Demo Intermediate CA
        Validity
            Not Before: Aug  6 10:10:11 2025 GMT
            Not After : Aug  4 10:10:11 2035 GMT
        Subject: C=IN, ST=Bihar, O=DemoOrg, OU=DemoUnit, CN=Demo Common Name
        Subject Public Key Info:
            Public Key Algorithm: rsaEncryption
                Public-Key: (2048 bit)
                Modulus:
                    00:95:ee:01:6c:cf:85:c9:01:26:87:19:c6:0d:b9:
                    f3:5f:32:d8:0f:58:ea:02:36:92:4a:85:2d:73:1c:
                    25:e4:7b:89:68:48:e9:54:e2:e1:ee:fc:22:1b:25:
                    88:c0:b3:70:50:49:79:e7:e6:2b:2a:43:ca:1b:39:
                    60:c5:69:e6:d7:63:23:8b:bb:26:0a:6b:21:44:0f:
                    21:0f:46:08:14:82:01:8a:53:82:49:48:c4:fb:24:
                    6f:45:ad:85:6c:fa:92:86:fd:8a:9d:cf:90:46:cb:
                    6b:b9:07:17:2e:7d:ef:66:d6:56:85:39:fe:b0:0f:
                    62:3c:94:ec:fe:8c:45:9e:5a:70:e8:e1:c2:27:c2:
                    5d:d5:24:07:56:d1:82:71:7f:66:ca:da:32:b8:88:
                    0d:17:62:cf:3c:5e:e3:be:ea:7b:bd:0b:be:f5:c9:
                    e0:d7:e8:18:9c:a2:a3:d1:c1:dc:6b:41:05:3c:ae:
                    12:d0:0b:ac:93:47:f9:92:13:78:9c:63:cb:13:77:
                    1e:70:3c:6e:84:01:bc:db:2f:dd:d1:dd:39:dd:97:
                    94:6d:e5:f6:e7:eb:aa:9a:d5:0b:10:44:76:8d:c7:
                    9a:28:bc:25:a0:ff:a8:32:ee:f6:c6:76:0a:57:ca:
                    30:f5:36:3b:5b:38:19:75:49:36:3f:c3:df:92:fa:
                    ef:0b
                Exponent: 65537 (0x10001)
        X509v3 extensions:
            X509v3 Basic Constraints: 
                CA:FALSE
            Netscape Cert Type: 
                SSL Client, S/MIME
            Netscape Comment: 
                OpenSSL Generated Client Certificate
            X509v3 Subject Key Identifier: 
                F4:0D:25:1D:97:20:29:B2:2D:EC:3E:6E:9B:01:E0:C5:6E:73:D7:BF
            X509v3 Authority Key Identifier: 
                C5:B1:7C:DE:30:52:65:04:35:E0:C1:3A:96:22:A5:D0:33:E6:1E:99
            X509v3 Key Usage: critical
                Digital Signature, Key Encipherment
            X509v3 Extended Key Usage: 
                TLS Web Client Authentication
    Signature Algorithm: sha256WithRSAEncryption
    Signature Value:
        97:cd:69:59:04:a9:a9:05:df:d5:75:f8:64:f8:ed:1d:7d:0f:
        d3:3a:9f:e9:da:25:9b:ef:1b:0d:3a:2c:6c:38:9f:40:b2:a3:
        84:00:fd:9d:c2:71:89:4a:3c:97:3c:13:02:32:24:47:3c:55:
        f9:be:8e:1d:91:a4:ef:84:03:9c:57:dc:c9:c0:a5:fe:f4:ff:
        04:9b:56:d6:d5:52:73:29:d9:14:fa:31:32:b4:9d:2a:32:e7:
        82:ed:b4:0c:89:5a:07:4f:6a:e3:9f:3c:e0:bc:0b:ad:19:60:
        f3:1c:d2:a1:76:46:95:84:77:d0:6b:25:37:37:d9:70:84:9c:
        2d:a4:61:59:37:a2:92:e6:6e:2a:a6:63:c6:13:78:c8:24:e1:
        ac:3e:8d:fc:0b:cb:e4:13:63:e5:a7:c5:64:07:89:c5:bf:9f:
        04:c9:7a:06:08:ee:8f:d6:ed:b8:0c:52:e2:98:54:1e:a6:f9:
        1a:ff:1c:42:3f:6e:b5:98:a3:de:9e:e9:ea:dd:06:6c:96:70:
        61:09:15:38:1d:65:f9:6e:3a:78:f0:b4:7b:7c:44:ec:24:74:
        a0:c2:cc:12:07:46:57:1c:53:83:a1:45:9b:22:f3:02:df:cf:
        70:88:84:0c:85:d2:df:41:9e:87:3e:37:13:70:ce:f5:de:e8:
        fa:e9:60:af:16:30:d1:bb:19:a0:21:23:7f:f5:ac:c4:94:9d:
        97:71:2e:e0:cd:5e:e2:d0:d8:fb:d4:61:75:52:ef:d4:c9:29:
        ec:cf:cc:8e:7a:1a:0a:8e:d4:51:1e:54:8d:25:a6:ab:86:70:
        5e:7b:f3:6d:1e:f7:23:9d:ce:dc:85:e6:11:e7:a9:2d:d9:bc:
        56:10:42:20:20:51:9e:1a:be:9e:2a:60:4f:a9:8c:16:93:ed:
        32:9d:d8:92:70:28:64:1f:da:78:ea:d1:02:9e:76:4c:26:be:
        a1:2a:09:de:9c:9d:b3:2a:20:78:7e:84:78:70:55:82:4d:cb:
        7d:83:05:53:38:31:45:b9:40:3e:62:7a:5b:d5:c5:79:b3:30:
        01:66:8c:b3:c8:41:49:ee:06:ed:66:7f:dd:51:1d:e3:de:43:
        1a:b6:d2:98:53:dd:95:3d:39:89:2a:fc:16:56:26:15:fa:e6:
        76:15:dd:13:88:a4:a9:3d:7a:e1:89:64:97:c2:d2:3d:4b:3d:
        c4:44:82:e5:76:f4:df:4f:3a:55:30:24:05:13:04:04:ee:57:
        47:cb:ba:aa:f0:83:a9:58:3b:50:5e:09:4c:38:9d:56:e2:64:
        4b:e2:a9:3c:19:ce:0d:2d:a9:d9:7c:7a:15:79:91:1e:bf:2e:
        3e:bb:9d:13:18:d1:46:20
-----BEGIN CERTIFICATE-----
MIIE4zCCAsugAwIBAgICEAMwDQYJKoZIhvcNAQELBQAwTjELMAkGA1UEBhMCSU4x
DjAMBgNVBAgMBUJpaGFyMRAwDgYDVQQKDAdEZW1vT3JnMR0wGwYDVQQDDBREZW1v
IEludGVybWVkaWF0ZSBDQTAeFw0yNTA4MDYxMDEwMTFaFw0zNTA4MDQxMDEwMTFa
MF0xCzAJBgNVBAYTAklOMQ4wDAYDVQQIDAVCaWhhcjEQMA4GA1UECgwHRGVtb09y
ZzERMA8GA1UECwwIRGVtb1VuaXQxGTAXBgNVBAMMEERlbW8gQ29tbW9uIE5hbWUw
ggEiMA0GCSqGSIb3DQEBAQUAA4IBDwAwggEKAoIBAQCV7gFsz4XJASaHGcYNufNf
MtgPWOoCNpJKhS1zHCXke4loSOlU4uHu/CIbJYjAs3BQSXnn5isqQ8obOWDFaebX
YyOLuyYKayFEDyEPRggUggGKU4JJSMT7JG9FrYVs+pKG/Yqdz5BGy2u5Bxcufe9m
1laFOf6wD2I8lOz+jEWeWnDo4cInwl3VJAdW0YJxf2bK2jK4iA0XYs88XuO+6nu9
C771yeDX6BicoqPRwdxrQQU8rhLQC6yTR/mSE3icY8sTdx5wPG6EAbzbL93R3Tnd
l5Rt5fbn66qa1QsQRHaNx5oovCWg/6gy7vbGdgpXyjD1NjtbOBl1STY/w9+S+u8L
AgMBAAGjgbswgbgwCQYDVR0TBAIwADARBglghkgBhvhCAQEEBAMCBaAwMwYJYIZI
AYb4QgENBCYWJE9wZW5TU0wgR2VuZXJhdGVkIENsaWVudCBDZXJ0aWZpY2F0ZTAd
BgNVHQ4EFgQU9A0lHZcgKbIt7D5umwHgxW5z178wHwYDVR0jBBgwFoAUxbF83jBS
ZQQ14ME6liKl0DPmHpkwDgYDVR0PAQH/BAQDAgWgMBMGA1UdJQQMMAoGCCsGAQUF
BwMCMA0GCSqGSIb3DQEBCwUAA4ICAQCXzWlZBKmpBd/Vdfhk+O0dfQ/TOp/p2iWb
7xsNOixsOJ9AsqOEAP2dwnGJSjyXPBMCMiRHPFX5vo4dkaTvhAOcV9zJwKX+9P8E
m1bW1VJzKdkU+jEytJ0qMueC7bQMiVoHT2rjnzzgvAutGWDzHNKhdkaVhHfQayU3
N9lwhJwtpGFZN6KS5m4qpmPGE3jIJOGsPo38C8vkE2Plp8VkB4nFv58EyXoGCO6P
1u24DFLimFQepvka/xxCP261mKPenunq3QZslnBhCRU4HWX5bjp48LR7fETsJHSg
wswSB0ZXHFODoUWbIvMC389wiIQMhdLfQZ6HPjcTcM713uj66WCvFjDRuxmgISN/
9azElJ2XcS7gzV7i0Nj71GF1Uu/UySnsz8yOehoKjtRRHlSNJaarhnBee/NtHvcj
nc7cheYR56kt2bxWEEIgIFGeGr6eKmBPqYwWk+0yndiScChkH9p46tECnnZMJr6h
KgnenJ2zKiB4foR4cFWCTct9gwVTODFFuUA+Ynpb1cV5szABZoyzyEFJ7gbtZn/d
UR3j3kMattKYU92VPTmJKvwWViYV+uZ2Fd0TiKSpPXrhiWSXwtI9Sz3ERILldvTf
TzpVMCQFEwQE7ldHy7qq8IOpWDtQXglMOJ1W4mRL4qk8Gc4NLanZfHoVeZEevy4+
u50TGNFGIA==
-----END CERTIFICATE-----
