Certificate:
    Data:
        Version: 3 (0x2)
        Serial Number: 4100 (0x1004)
        Signature Algorithm: sha256WithRSAEncryption
        Issuer: C=IN, ST=Bihar, O=DemoOrg, CN=Demo Intermediate CA
        Validity
            Not Before: Aug  6 11:09:26 2025 GMT
            Not After : Aug  4 11:09:26 2035 GMT
        Subject: C=IN, ST=Bihar, O=serverOrg, OU=serverUnit, CN=server.demo.local
        Subject Public Key Info:
            Public Key Algorithm: rsaEncryption
                Public-Key: (4096 bit)
                Modulus:
                    00:c2:09:c8:df:a0:16:d4:04:fe:6e:2a:dc:4b:86:
                    b3:fe:7b:96:ed:b8:78:a8:d7:e1:f5:b2:d9:a7:da:
                    09:72:6b:90:79:b4:1d:ef:d9:44:f0:ae:dc:ad:59:
                    b1:ef:99:68:f8:f1:f3:a3:fd:24:7b:64:5f:6c:ec:
                    9d:30:20:c7:14:08:60:e6:60:ce:d9:91:02:a6:43:
                    62:16:be:3f:42:2c:d8:18:27:d4:fb:5f:c0:d3:35:
                    01:4d:56:56:50:db:9b:8d:cf:0c:96:c4:68:8c:70:
                    9a:c9:1e:5b:90:bd:e2:98:93:89:c2:0a:22:24:98:
                    a4:6f:eb:46:2b:ea:5d:6a:a6:ab:0f:00:d9:8d:49:
                    73:92:98:98:85:2d:c2:a4:30:f7:82:9a:00:d6:c7:
                    48:8c:16:a9:cb:1a:40:4d:f5:9e:42:a1:cf:e2:81:
                    80:62:8e:98:17:6f:73:f6:28:87:60:f4:b6:07:82:
                    9c:1f:77:92:74:00:67:6e:c0:54:f2:37:56:f1:f7:
                    7f:9d:60:a5:f9:18:11:2e:d1:9a:30:82:02:84:f6:
                    3b:04:01:94:9e:ad:7f:39:da:a5:3b:c4:67:47:5d:
                    b6:64:37:ac:24:2d:83:ff:1c:b5:d6:9c:59:2d:d4:
                    06:37:f3:27:98:cf:28:93:d2:95:86:53:62:f9:b2:
                    2c:7f:e8:d1:85:b7:a9:bb:85:e6:fc:8f:0d:23:da:
                    52:87:e3:7a:40:48:fd:52:1e:83:ec:3e:c5:d3:5e:
                    23:c4:ee:f7:42:a4:fb:77:fe:f2:19:25:72:df:bd:
                    8a:34:a2:37:56:de:9c:5d:33:c7:02:00:1a:44:73:
                    9b:58:0b:92:8e:32:87:1b:81:96:60:9b:77:dd:13:
                    e8:a8:0a:d6:1d:cb:d2:4f:ca:2e:e1:d6:06:19:d6:
                    c4:12:0c:96:eb:64:bd:32:a7:3c:fb:fc:2c:ef:37:
                    35:1b:d6:c9:33:1b:20:eb:6f:89:81:a1:bf:48:f6:
                    8d:7b:53:f9:80:48:c1:f7:5d:76:be:52:66:e1:92:
                    d5:1e:6e:9f:e2:b4:1f:57:58:67:46:98:36:79:6b:
                    cd:85:9a:08:13:58:bf:75:04:15:8b:1d:0d:10:9e:
                    8e:35:8f:8a:2e:0d:67:27:53:dd:9a:30:14:4e:d1:
                    e7:4c:13:89:d4:69:ef:6b:75:af:a3:81:72:23:46:
                    79:27:cf:87:89:c5:14:b7:4d:2f:62:6b:10:f2:51:
                    83:0e:07:46:a9:f2:e5:dd:93:c2:82:45:e5:25:fb:
                    dd:6c:9d:2f:d9:1c:8d:78:0f:ad:c3:09:13:97:c4:
                    e7:a9:52:b9:e1:cd:9d:a9:8f:2e:2c:a9:11:74:ef:
                    a7:30:d3
                Exponent: 65537 (0x10001)
        X509v3 extensions:
            X509v3 Basic Constraints: 
                CA:FALSE
            Netscape Cert Type: 
                SSL Server
            Netscape Comment: 
                OpenSSL Generated Server Certificate
            X509v3 Subject Key Identifier: 
                74:14:02:F5:DB:76:61:22:1F:C9:19:74:FF:9E:D3:D4:DB:46:07:2B
            X509v3 Authority Key Identifier: 
                C5:B1:7C:DE:30:52:65:04:35:E0:C1:3A:96:22:A5:D0:33:E6:1E:99
            X509v3 Key Usage: critical
                Digital Signature, Key Encipherment
            X509v3 Extended Key Usage: 
                TLS Web Server Authentication
    Signature Algorithm: sha256WithRSAEncryption
    Signature Value:
        76:10:87:1b:5b:15:61:e0:a7:be:27:55:fe:c3:c8:5b:a0:7b:
        b1:0c:48:f4:fa:fa:47:45:2f:e6:be:12:11:42:8b:8c:93:2f:
        51:1f:6b:a1:48:43:24:32:ad:d6:8b:75:fd:fb:8e:23:be:83:
        17:d1:64:9e:7c:da:f7:aa:dc:6c:ef:f7:71:5c:65:f9:bc:b4:
        3e:f9:83:b0:ae:66:f5:1e:78:2c:48:df:23:dd:ec:d6:b5:e8:
        bd:eb:14:01:02:53:8f:31:e8:20:21:34:5d:fb:23:6a:bd:af:
        98:55:f3:05:95:af:0f:48:28:30:00:f1:fa:be:78:ac:d1:03:
        88:bd:24:f7:c2:e0:58:a8:a9:4e:05:32:f8:a0:7b:f3:99:62:
        7a:3d:3d:5e:e6:49:d8:13:14:ad:5b:9f:c5:14:1e:d3:cb:61:
        ea:b8:de:fc:3c:59:90:d5:01:c0:02:78:36:cd:0d:26:78:9b:
        a9:77:51:9c:86:62:f3:31:0b:b8:05:8c:cb:f0:cb:d3:56:86:
        d2:29:c3:4c:6f:8e:b4:fe:41:3f:da:e1:4a:d2:37:b5:ce:dc:
        9c:98:b7:32:df:81:00:0d:67:9e:28:5e:bc:6c:2e:cd:35:a1:
        c5:9e:03:a8:42:b3:54:3e:a5:60:16:9b:8f:b0:98:f8:3e:6a:
        d0:42:8e:51:4d:eb:cc:ee:10:dd:97:32:7f:93:63:a3:b2:05:
        c0:b8:b8:fa:74:8d:fb:41:7a:39:e2:0f:5a:81:9e:be:13:4c:
        27:5f:4a:6a:16:2e:bd:91:ab:ec:1a:bc:46:15:23:a2:28:16:
        ed:5d:c7:a2:94:ff:97:d5:92:04:9b:ab:a1:d9:d9:13:81:c6:
        f1:ce:ef:bf:b4:49:b1:a1:81:bf:bc:f4:42:f7:f2:d3:9d:a3:
        49:85:48:4c:41:3a:9e:f4:ab:f1:81:c9:4e:31:99:24:b0:c6:
        20:31:99:7c:fc:09:8b:0e:4e:d8:04:ce:02:68:27:10:04:67:
        76:6d:bf:89:e6:9d:56:a2:80:24:cb:01:2d:23:02:24:86:21:
        46:16:2f:eb:18:8c:ba:b5:cf:df:e6:ee:ca:38:d6:3c:d9:1d:
        56:d9:b4:95:7a:ff:3e:6b:20:b4:d6:0b:c8:d7:f7:8d:e7:52:
        91:65:eb:fd:80:43:bb:2c:f3:9d:0e:08:f5:cb:da:a1:7e:20:
        61:36:f3:ef:10:1e:0e:46:65:88:6d:dd:d9:11:61:3e:c0:a9:
        0c:56:25:df:75:81:c5:12:6e:36:69:0f:f9:56:23:f1:cc:de:
        8f:10:7a:bb:6e:ab:eb:21:d8:74:6f:22:04:aa:7c:35:b9:7a:
        1f:3a:85:7c:ce:7f:52:43
-----BEGIN CERTIFICATE-----
MIIF6DCCA9CgAwIBAgICEAQwDQYJKoZIhvcNAQELBQAwTjELMAkGA1UEBhMCSU4x
DjAMBgNVBAgMBUJpaGFyMRAwDgYDVQQKDAdEZW1vT3JnMR0wGwYDVQQDDBREZW1v
IEludGVybWVkaWF0ZSBDQTAeFw0yNTA4MDYxMTA5MjZaFw0zNTA4MDQxMTA5MjZa
MGIxCzAJBgNVBAYTAklOMQ4wDAYDVQQIDAVCaWhhcjESMBAGA1UECgwJc2VydmVy
T3JnMRMwEQYDVQQLDApzZXJ2ZXJVbml0MRowGAYDVQQDDBFzZXJ2ZXIuZGVtby5s
b2NhbDCCAiIwDQYJKoZIhvcNAQEBBQADggIPADCCAgoCggIBAMIJyN+gFtQE/m4q
3EuGs/57lu24eKjX4fWy2afaCXJrkHm0He/ZRPCu3K1Zse+ZaPjx86P9JHtkX2zs
nTAgxxQIYOZgztmRAqZDYha+P0Is2Bgn1PtfwNM1AU1WVlDbm43PDJbEaIxwmske
W5C94piTicIKIiSYpG/rRivqXWqmqw8A2Y1Jc5KYmIUtwqQw94KaANbHSIwWqcsa
QE31nkKhz+KBgGKOmBdvc/Yoh2D0tgeCnB93knQAZ27AVPI3VvH3f51gpfkYES7R
mjCCAoT2OwQBlJ6tfznapTvEZ0ddtmQ3rCQtg/8ctdacWS3UBjfzJ5jPKJPSlYZT
YvmyLH/o0YW3qbuF5vyPDSPaUofjekBI/VIeg+w+xdNeI8Tu90Kk+3f+8hklct+9
ijSiN1benF0zxwIAGkRzm1gLko4yhxuBlmCbd90T6KgK1h3L0k/KLuHWBhnWxBIM
lutkvTKnPPv8LO83NRvWyTMbIOtviYGhv0j2jXtT+YBIwfdddr5SZuGS1R5un+K0
H1dYZ0aYNnlrzYWaCBNYv3UEFYsdDRCejjWPii4NZydT3ZowFE7R50wTidRp72t1
r6OBciNGeSfPh4nFFLdNL2JrEPJRgw4HRqny5d2TwoJF5SX73WydL9kcjXgPrcMJ
E5fE56lSueHNnamPLiypEXTvpzDTAgMBAAGjgbswgbgwCQYDVR0TBAIwADARBglg
hkgBhvhCAQEEBAMCBkAwMwYJYIZIAYb4QgENBCYWJE9wZW5TU0wgR2VuZXJhdGVk
IFNlcnZlciBDZXJ0aWZpY2F0ZTAdBgNVHQ4EFgQUdBQC9dt2YSIfyRl0/57T1NtG
ByswHwYDVR0jBBgwFoAUxbF83jBSZQQ14ME6liKl0DPmHpkwDgYDVR0PAQH/BAQD
AgWgMBMGA1UdJQQMMAoGCCsGAQUFBwMBMA0GCSqGSIb3DQEBCwUAA4ICAQB2EIcb
WxVh4Ke+J1X+w8hboHuxDEj0+vpHRS/mvhIRQouMky9RH2uhSEMkMq3Wi3X9+44j
voMX0WSefNr3qtxs7/dxXGX5vLQ++YOwrmb1HngsSN8j3ezWtei96xQBAlOPMegg
ITRd+yNqva+YVfMFla8PSCgwAPH6vnis0QOIvST3wuBYqKlOBTL4oHvzmWJ6PT1e
5knYExStW5/FFB7Ty2HquN78PFmQ1QHAAng2zQ0meJupd1GchmLzMQu4BYzL8MvT
VobSKcNMb460/kE/2uFK0je1ztycmLcy34EADWeeKF68bC7NNaHFngOoQrNUPqVg
FpuPsJj4PmrQQo5RTevM7hDdlzJ/k2OjsgXAuLj6dI37QXo54g9agZ6+E0wnX0pq
Fi69kavsGrxGFSOiKBbtXceilP+X1ZIEm6uh2dkTgcbxzu+/tEmxoYG/vPRC9/LT
naNJhUhMQTqe9KvxgclOMZkksMYgMZl8/AmLDk7YBM4CaCcQBGd2bb+J5p1WooAk
ywEtIwIkhiFGFi/rGIy6tc/f5u7KONY82R1W2bSVev8+ayC01gvI1/eN51KRZev9
gEO7LPOdDgj1y9qhfiBhNvPvEB4ORmWIbd3ZEWE+wKkMViXfdYHFEm42aQ/5ViPx
zN6PEHq7bqvrIdh0byIEqnw1uXofOoV8zn9SQw==
-----END CERTIFICATE-----
