Certificate:
    Data:
        Version: 3 (0x2)
        Serial Number: 4101 (0x1005)
        Signature Algorithm: sha256WithRSAEncryption
        Issuer: C=IN, ST=Bihar, O=DemoOrg, CN=Demo Intermediate CA
        Validity
            Not Before: Aug  7 05:31:27 2025 GMT
            Not After : Aug  5 05:31:27 2035 GMT
        Subject: C=IN, ST=Bihar, O=DemoServices, OU=Backend, CN=service-a
        Subject Public Key Info:
            Public Key Algorithm: rsaEncryption
                Public-Key: (4096 bit)
                Modulus:
                    00:c2:09:c8:df:a0:16:d4:04:fe:6e:2a:dc:4b:86:
                    b3:fe:7b:96:ed:b8:78:a8:d7:e1:f5:b2:d9:a7:da:
                    09:72:6b:90:79:b4:1d:ef:d9:44:f0:ae:dc:ad:59:
                    b1:ef:99:68:f8:f1:f3:a3:fd:24:7b:64:5f:6c:ec:
                    9d:30:20:c7:14:08:60:e6:60:ce:d9:91:02:a6:43:
                    62:16:be:3f:42:2c:d8:18:27:d4:fb:5f:c0:d3:35:
                    01:4d:56:56:50:db:9b:8d:cf:0c:96:c4:68:8c:70:
                    9a:c9:1e:5b:90:bd:e2:98:93:89:c2:0a:22:24:98:
                    a4:6f:eb:46:2b:ea:5d:6a:a6:ab:0f:00:d9:8d:49:
                    73:92:98:98:85:2d:c2:a4:30:f7:82:9a:00:d6:c7:
                    48:8c:16:a9:cb:1a:40:4d:f5:9e:42:a1:cf:e2:81:
                    80:62:8e:98:17:6f:73:f6:28:87:60:f4:b6:07:82:
                    9c:1f:77:92:74:00:67:6e:c0:54:f2:37:56:f1:f7:
                    7f:9d:60:a5:f9:18:11:2e:d1:9a:30:82:02:84:f6:
                    3b:04:01:94:9e:ad:7f:39:da:a5:3b:c4:67:47:5d:
                    b6:64:37:ac:24:2d:83:ff:1c:b5:d6:9c:59:2d:d4:
                    06:37:f3:27:98:cf:28:93:d2:95:86:53:62:f9:b2:
                    2c:7f:e8:d1:85:b7:a9:bb:85:e6:fc:8f:0d:23:da:
                    52:87:e3:7a:40:48:fd:52:1e:83:ec:3e:c5:d3:5e:
                    23:c4:ee:f7:42:a4:fb:77:fe:f2:19:25:72:df:bd:
                    8a:34:a2:37:56:de:9c:5d:33:c7:02:00:1a:44:73:
                    9b:58:0b:92:8e:32:87:1b:81:96:60:9b:77:dd:13:
                    e8:a8:0a:d6:1d:cb:d2:4f:ca:2e:e1:d6:06:19:d6:
                    c4:12:0c:96:eb:64:bd:32:a7:3c:fb:fc:2c:ef:37:
                    35:1b:d6:c9:33:1b:20:eb:6f:89:81:a1:bf:48:f6:
                    8d:7b:53:f9:80:48:c1:f7:5d:76:be:52:66:e1:92:
                    d5:1e:6e:9f:e2:b4:1f:57:58:67:46:98:36:79:6b:
                    cd:85:9a:08:13:58:bf:75:04:15:8b:1d:0d:10:9e:
                    8e:35:8f:8a:2e:0d:67:27:53:dd:9a:30:14:4e:d1:
                    e7:4c:13:89:d4:69:ef:6b:75:af:a3:81:72:23:46:
                    79:27:cf:87:89:c5:14:b7:4d:2f:62:6b:10:f2:51:
                    83:0e:07:46:a9:f2:e5:dd:93:c2:82:45:e5:25:fb:
                    dd:6c:9d:2f:d9:1c:8d:78:0f:ad:c3:09:13:97:c4:
                    e7:a9:52:b9:e1:cd:9d:a9:8f:2e:2c:a9:11:74:ef:
                    a7:30:d3
                Exponent: 65537 (0x10001)
        X509v3 extensions:
            X509v3 Basic Constraints: 
                CA:FALSE
            Netscape Cert Type: 
                SSL Client, SSL Server
            Netscape Comment: 
                OpenSSL Generated Certificate
            X509v3 Subject Key Identifier: 
                74:14:02:F5:DB:76:61:22:1F:C9:19:74:FF:9E:D3:D4:DB:46:07:2B
            X509v3 Authority Key Identifier: 
                C5:B1:7C:DE:30:52:65:04:35:E0:C1:3A:96:22:A5:D0:33:E6:1E:99
            X509v3 Key Usage: 
                Digital Signature, Key Encipherment
            X509v3 Extended Key Usage: 
                TLS Web Client Authentication, TLS Web Server Authentication
    Signature Algorithm: sha256WithRSAEncryption
    Signature Value:
        8c:51:c1:ee:a1:e6:98:b1:3f:d7:16:a7:d9:03:d9:77:04:22:
        d6:96:d3:44:e1:b8:d8:56:58:5b:88:06:38:f0:dd:b6:2c:fb:
        cd:dc:87:3c:0d:e0:95:73:73:65:89:5d:1c:a1:d2:eb:bb:92:
        6f:38:b8:50:5d:bc:22:03:64:62:11:d5:c1:eb:f8:a5:38:0a:
        6b:d8:fd:d1:5e:55:ec:32:ac:0b:d9:c8:53:37:2a:48:78:1c:
        b2:e9:7f:5e:90:86:ae:85:33:d6:29:12:58:5f:b6:33:ba:fc:
        e8:2b:fc:e1:21:47:e5:78:9d:db:81:a8:da:52:99:65:f8:73:
        b3:80:39:ab:1f:35:93:2f:8d:e8:83:d8:74:ed:49:d0:26:d9:
        c4:56:8d:42:58:e6:2a:c3:1f:bb:12:b0:ad:dc:7b:82:e8:70:
        37:76:4c:88:15:12:29:d8:f9:3b:7d:5b:25:a9:02:4d:86:2d:
        07:a7:85:60:35:ad:09:69:bf:d4:56:e3:a8:2c:be:7c:a5:54:
        54:e8:00:68:9c:74:fc:dd:07:db:6e:35:50:7d:b2:15:23:d8:
        47:c1:96:43:34:b3:4a:1a:47:fd:af:a7:0e:77:d7:7b:99:f3:
        30:8a:96:1d:0b:19:f3:7d:99:da:f8:a7:9c:3c:85:8d:33:00:
        9f:54:99:cc:46:91:f6:43:56:7f:68:5e:2e:46:1b:2d:cd:0e:
        f3:0e:9f:e0:b9:a4:7b:65:fd:db:92:e4:0f:d0:fd:dd:33:9c:
        46:e9:82:60:81:0f:5b:f8:bd:6b:d4:eb:29:b5:1f:4b:e0:06:
        bf:bb:98:0b:f1:f6:59:c0:d4:5d:5e:e3:ad:75:59:18:fc:88:
        89:43:02:7b:66:c8:57:8c:3d:2f:49:a4:23:23:4e:7c:af:1d:
        b9:33:e9:75:0a:f9:24:18:b4:75:42:73:8a:89:e4:00:09:32:
        c5:ae:dc:5f:d1:4b:fb:84:2e:cc:fb:cb:2a:02:04:51:83:27:
        b5:05:ef:db:b4:77:e1:65:05:b8:18:02:1a:5d:16:1a:69:2d:
        24:45:7d:70:bf:9a:4c:a7:7a:9d:1e:e2:4d:8c:4e:53:a7:fd:
        90:16:95:00:3f:d9:92:bc:c5:03:56:e3:76:24:c1:dd:50:21:
        bc:f2:99:fa:91:d9:e7:44:4e:32:a4:49:bd:80:f9:fa:ee:24:
        a3:2b:90:1d:9e:89:ff:5e:47:20:1b:66:84:83:9d:2b:2c:a7:
        a2:99:83:e1:11:2c:45:96:25:2d:a6:7c:36:c6:b0:e7:ff:20:
        c3:65:9d:77:41:1a:ae:27:b1:0b:5b:2d:d2:f3:5a:29:4f:34:
        97:e9:2d:82:d4:0c:40:be
-----BEGIN CERTIFICATE-----
MIIF4DCCA8igAwIBAgICEAUwDQYJKoZIhvcNAQELBQAwTjELMAkGA1UEBhMCSU4x
DjAMBgNVBAgMBUJpaGFyMRAwDgYDVQQKDAdEZW1vT3JnMR0wGwYDVQQDDBREZW1v
IEludGVybWVkaWF0ZSBDQTAeFw0yNTA4MDcwNTMxMjdaFw0zNTA4MDUwNTMxMjda
MFoxCzAJBgNVBAYTAklOMQ4wDAYDVQQIDAVCaWhhcjEVMBMGA1UECgwMRGVtb1Nl
cnZpY2VzMRAwDgYDVQQLDAdCYWNrZW5kMRIwEAYDVQQDDAlzZXJ2aWNlLWEwggIi
MA0GCSqGSIb3DQEBAQUAA4ICDwAwggIKAoICAQDCCcjfoBbUBP5uKtxLhrP+e5bt
uHio1+H1stmn2glya5B5tB3v2UTwrtytWbHvmWj48fOj/SR7ZF9s7J0wIMcUCGDm
YM7ZkQKmQ2IWvj9CLNgYJ9T7X8DTNQFNVlZQ25uNzwyWxGiMcJrJHluQveKYk4nC
CiIkmKRv60Yr6l1qpqsPANmNSXOSmJiFLcKkMPeCmgDWx0iMFqnLGkBN9Z5Coc/i
gYBijpgXb3P2KIdg9LYHgpwfd5J0AGduwFTyN1bx93+dYKX5GBEu0ZowggKE9jsE
AZSerX852qU7xGdHXbZkN6wkLYP/HLXWnFkt1AY38yeYzyiT0pWGU2L5six/6NGF
t6m7heb8jw0j2lKH43pASP1SHoPsPsXTXiPE7vdCpPt3/vIZJXLfvYo0ojdW3pxd
M8cCABpEc5tYC5KOMocbgZZgm3fdE+ioCtYdy9JPyi7h1gYZ1sQSDJbrZL0ypzz7
/CzvNzUb1skzGyDrb4mBob9I9o17U/mASMH3XXa+UmbhktUebp/itB9XWGdGmDZ5
a82FmggTWL91BBWLHQ0Qno41j4ouDWcnU92aMBRO0edME4nUae9rda+jgXIjRnkn
z4eJxRS3TS9iaxDyUYMOB0ap8uXdk8KCReUl+91snS/ZHI14D63DCROXxOepUrnh
zZ2pjy4sqRF076cw0wIDAQABo4G7MIG4MAkGA1UdEwQCMAAwEQYJYIZIAYb4QgEB
BAQDAgbAMCwGCWCGSAGG+EIBDQQfFh1PcGVuU1NMIEdlbmVyYXRlZCBDZXJ0aWZp
Y2F0ZTAdBgNVHQ4EFgQUdBQC9dt2YSIfyRl0/57T1NtGByswHwYDVR0jBBgwFoAU
xbF83jBSZQQ14ME6liKl0DPmHpkwCwYDVR0PBAQDAgWgMB0GA1UdJQQWMBQGCCsG
AQUFBwMCBggrBgEFBQcDATANBgkqhkiG9w0BAQsFAAOCAgEAjFHB7qHmmLE/1xan
2QPZdwQi1pbTROG42FZYW4gGOPDdtiz7zdyHPA3glXNzZYldHKHS67uSbzi4UF28
IgNkYhHVwev4pTgKa9j90V5V7DKsC9nIUzcqSHgcsul/XpCGroUz1ikSWF+2M7r8
6Cv84SFH5Xid24Go2lKZZfhzs4A5qx81ky+N6IPYdO1J0CbZxFaNQljmKsMfuxKw
rdx7guhwN3ZMiBUSKdj5O31bJakCTYYtB6eFYDWtCWm/1FbjqCy+fKVUVOgAaJx0
/N0H2241UH2yFSPYR8GWQzSzShpH/a+nDnfXe5nzMIqWHQsZ832Z2vinnDyFjTMA
n1SZzEaR9kNWf2heLkYbLc0O8w6f4Lmke2X925LkD9D93TOcRumCYIEPW/i9a9Tr
KbUfS+AGv7uYC/H2WcDUXV7jrXVZGPyIiUMCe2bIV4w9L0mkIyNOfK8duTPpdQr5
JBi0dUJzionkAAkyxa7cX9FL+4QuzPvLKgIEUYMntQXv27R34WUFuBgCGl0WGmkt
JEV9cL+aTKd6nR7iTYxOU6f9kBaVAD/ZkrzFA1bjdiTB3VAhvPKZ+pHZ50ROMqRJ
vYD5+u4koyuQHZ6J/15HIBtmhIOdKyynopmD4REsRZYlLaZ8Nsaw5/8gw2Wdd0Ea
riexC1st0vNaKU80l+ktgtQMQL4=
-----END CERTIFICATE-----
