Certificate:
    Data:
        Version: 3 (0x2)
        Serial Number: 4102 (0x1006)
        Signature Algorithm: sha256WithRSAEncryption
        Issuer: C=IN, ST=Bihar, O=DemoOrg, CN=Demo Intermediate CA
        Validity
            Not Before: Aug  7 05:40:10 2025 GMT
            Not After : Aug  5 05:40:10 2035 GMT
        Subject: C=IN, ST=Bihar, O=DemoServices, OU=Backend, CN=service-b
        Subject Public Key Info:
            Public Key Algorithm: rsaEncryption
                Public-Key: (2048 bit)
                Modulus:
                    00:95:ee:01:6c:cf:85:c9:01:26:87:19:c6:0d:b9:
                    f3:5f:32:d8:0f:58:ea:02:36:92:4a:85:2d:73:1c:
                    25:e4:7b:89:68:48:e9:54:e2:e1:ee:fc:22:1b:25:
                    88:c0:b3:70:50:49:79:e7:e6:2b:2a:43:ca:1b:39:
                    60:c5:69:e6:d7:63:23:8b:bb:26:0a:6b:21:44:0f:
                    21:0f:46:08:14:82:01:8a:53:82:49:48:c4:fb:24:
                    6f:45:ad:85:6c:fa:92:86:fd:8a:9d:cf:90:46:cb:
                    6b:b9:07:17:2e:7d:ef:66:d6:56:85:39:fe:b0:0f:
                    62:3c:94:ec:fe:8c:45:9e:5a:70:e8:e1:c2:27:c2:
                    5d:d5:24:07:56:d1:82:71:7f:66:ca:da:32:b8:88:
                    0d:17:62:cf:3c:5e:e3:be:ea:7b:bd:0b:be:f5:c9:
                    e0:d7:e8:18:9c:a2:a3:d1:c1:dc:6b:41:05:3c:ae:
                    12:d0:0b:ac:93:47:f9:92:13:78:9c:63:cb:13:77:
                    1e:70:3c:6e:84:01:bc:db:2f:dd:d1:dd:39:dd:97:
                    94:6d:e5:f6:e7:eb:aa:9a:d5:0b:10:44:76:8d:c7:
                    9a:28:bc:25:a0:ff:a8:32:ee:f6:c6:76:0a:57:ca:
                    30:f5:36:3b:5b:38:19:75:49:36:3f:c3:df:92:fa:
                    ef:0b
                Exponent: 65537 (0x10001)
        X509v3 extensions:
            X509v3 Basic Constraints: 
                CA:FALSE
            Netscape Cert Type: 
                SSL Client, SSL Server
            Netscape Comment: 
                OpenSSL Generated Certificate
            X509v3 Subject Key Identifier: 
                F4:0D:25:1D:97:20:29:B2:2D:EC:3E:6E:9B:01:E0:C5:6E:73:D7:BF
            X509v3 Authority Key Identifier: 
                C5:B1:7C:DE:30:52:65:04:35:E0:C1:3A:96:22:A5:D0:33:E6:1E:99
            X509v3 Key Usage: 
                Digital Signature, Key Encipherment
            X509v3 Extended Key Usage: 
                TLS Web Client Authentication, TLS Web Server Authentication
    Signature Algorithm: sha256WithRSAEncryption
    Signature Value:
        4d:bc:e1:29:b4:78:1c:3e:57:f9:be:3d:ac:99:11:0d:f0:2f:
        bc:7f:5d:f9:37:e1:06:ad:17:b8:fa:61:e5:1b:41:a8:90:8b:
        8e:a2:63:d5:5a:20:7f:1e:54:64:d8:2a:bf:c5:16:12:b0:53:
        c7:41:91:e2:7b:b2:44:ed:4e:bb:9b:55:32:e2:6e:15:c6:ab:
        7f:b0:9c:60:4e:24:2d:3c:aa:8b:b7:a1:1c:e3:4c:13:51:47:
        f4:16:d7:30:12:66:55:f5:2c:1a:db:ed:ab:af:84:f1:b5:cd:
        d2:75:a6:5e:3d:3c:55:5f:4f:42:0f:96:8e:9f:d9:61:51:f0:
        09:d0:db:25:a0:86:01:b3:a3:6f:92:1e:7e:91:ae:ac:76:4c:
        cf:8b:e3:f9:a5:5b:f5:07:5d:86:c2:a0:10:5e:c2:ac:6d:d3:
        6b:01:7d:05:de:87:06:19:f6:9e:18:2f:aa:03:dd:dc:ac:cc:
        b8:f9:e6:36:73:cd:94:a1:46:1b:42:28:0f:fc:6a:bf:42:87:
        6b:c1:e8:44:19:95:a8:89:4c:b0:a7:1c:85:89:b4:f4:6a:6e:
        f1:b6:ca:92:b2:27:e0:65:d5:4e:f8:8a:0b:9e:37:3f:fd:05:
        98:32:ab:90:59:2c:ab:0a:aa:db:0a:81:f6:43:fd:bf:74:37:
        7c:73:1f:3f:eb:c5:fb:b5:f4:5e:75:ef:27:1a:83:6d:c3:af:
        17:aa:52:a2:d4:a0:d4:99:eb:f2:b7:b4:9f:8e:4e:6a:b6:bc:
        f7:9a:48:9b:75:82:21:48:e7:93:ea:57:ed:e2:54:6c:22:d6:
        db:fe:17:e5:f1:71:91:ce:49:0c:44:9a:6d:a1:e5:af:1b:35:
        58:53:b0:18:d4:af:d7:4d:a0:6f:17:d5:8e:88:f6:eb:1f:b5:
        89:51:37:bf:14:8d:b9:63:26:4a:48:eb:e4:29:1c:ac:c3:4e:
        ae:67:f2:2f:9b:ef:5a:6c:f1:0c:40:5c:96:b3:95:4d:3f:9e:
        2f:3a:1a:70:3b:2b:20:3f:c4:3a:fd:64:44:ea:35:c2:bc:f1:
        60:05:54:e1:92:53:30:29:ca:02:d8:01:94:ff:4f:1c:03:52:
        81:38:23:47:24:43:b6:d6:90:3c:c1:04:75:81:c5:61:31:01:
        fe:2b:ad:27:96:c5:b9:ad:4b:44:44:7a:86:c2:77:88:01:e1:
        4e:61:ca:06:5f:db:31:5e:95:d4:80:7e:31:fe:74:22:3f:a5:
        85:56:23:14:95:7f:a7:17:3e:8d:11:05:d1:b8:55:36:b9:0b:
        b7:cb:8a:78:d8:d6:51:88:e7:1d:a6:21:3c:c0:ff:de:f4:b4:
        09:07:09:c0:8c:ed:1e:bb
-----BEGIN CERTIFICATE-----
MIIE4DCCAsigAwIBAgICEAYwDQYJKoZIhvcNAQELBQAwTjELMAkGA1UEBhMCSU4x
DjAMBgNVBAgMBUJpaGFyMRAwDgYDVQQKDAdEZW1vT3JnMR0wGwYDVQQDDBREZW1v
IEludGVybWVkaWF0ZSBDQTAeFw0yNTA4MDcwNTQwMTBaFw0zNTA4MDUwNTQwMTBa
MFoxCzAJBgNVBAYTAklOMQ4wDAYDVQQIDAVCaWhhcjEVMBMGA1UECgwMRGVtb1Nl
cnZpY2VzMRAwDgYDVQQLDAdCYWNrZW5kMRIwEAYDVQQDDAlzZXJ2aWNlLWIwggEi
MA0GCSqGSIb3DQEBAQUAA4IBDwAwggEKAoIBAQCV7gFsz4XJASaHGcYNufNfMtgP
WOoCNpJKhS1zHCXke4loSOlU4uHu/CIbJYjAs3BQSXnn5isqQ8obOWDFaebXYyOL
uyYKayFEDyEPRggUggGKU4JJSMT7JG9FrYVs+pKG/Yqdz5BGy2u5Bxcufe9m1laF
Of6wD2I8lOz+jEWeWnDo4cInwl3VJAdW0YJxf2bK2jK4iA0XYs88XuO+6nu9C771
yeDX6BicoqPRwdxrQQU8rhLQC6yTR/mSE3icY8sTdx5wPG6EAbzbL93R3Tndl5Rt
5fbn66qa1QsQRHaNx5oovCWg/6gy7vbGdgpXyjD1NjtbOBl1STY/w9+S+u8LAgMB
AAGjgbswgbgwCQYDVR0TBAIwADARBglghkgBhvhCAQEEBAMCBsAwLAYJYIZIAYb4
QgENBB8WHU9wZW5TU0wgR2VuZXJhdGVkIENlcnRpZmljYXRlMB0GA1UdDgQWBBT0
DSUdlyApsi3sPm6bAeDFbnPXvzAfBgNVHSMEGDAWgBTFsXzeMFJlBDXgwTqWIqXQ
M+YemTALBgNVHQ8EBAMCBaAwHQYDVR0lBBYwFAYIKwYBBQUHAwIGCCsGAQUFBwMB
MA0GCSqGSIb3DQEBCwUAA4ICAQBNvOEptHgcPlf5vj2smREN8C+8f135N+EGrRe4
+mHlG0GokIuOomPVWiB/HlRk2Cq/xRYSsFPHQZHie7JE7U67m1Uy4m4Vxqt/sJxg
TiQtPKqLt6Ec40wTUUf0FtcwEmZV9Swa2+2rr4Txtc3SdaZePTxVX09CD5aOn9lh
UfAJ0NsloIYBs6Nvkh5+ka6sdkzPi+P5pVv1B12GwqAQXsKsbdNrAX0F3ocGGfae
GC+qA93crMy4+eY2c82UoUYbQigP/Gq/QodrwehEGZWoiUywpxyFibT0am7xtsqS
sifgZdVO+IoLnjc//QWYMquQWSyrCqrbCoH2Q/2/dDd8cx8/68X7tfRede8nGoNt
w68XqlKi1KDUmevyt7Sfjk5qtrz3mkibdYIhSOeT6lft4lRsItbb/hfl8XGRzkkM
RJptoeWvGzVYU7AY1K/XTaBvF9WOiPbrH7WJUTe/FI25YyZKSOvkKRysw06uZ/Iv
m+9abPEMQFyWs5VNP54vOhpwOysgP8Q6/WRE6jXCvPFgBVThklMwKcoC2AGU/08c
A1KBOCNHJEO21pA8wQR1gcVhMQH+K60nlsW5rUtERHqGwneIAeFOYcoGX9sxXpXU
gH4x/nQiP6WFViMUlX+nFz6NEQXRuFU2uQu3y4p42NZRiOcdpiE8wP/e9LQJBwnA
jO0euw==
-----END CERTIFICATE-----
