Certificate:
    Data:
        Version: 3 (0x2)
        Serial Number: 4096 (0x1000)
        Signature Algorithm: sha256WithRSAEncryption
        Issuer: C=IN, ST=Bihar, O=DemoOrg, CN=Demo Intermediate CA
        Validity
            Not Before: Aug  5 11:17:11 2025 GMT
            Not After : Aug  3 11:17:11 2035 GMT
        Subject: 
        Subject Public Key Info:
            Public Key Algorithm: rsaEncryption
                Public-Key: (4096 bit)
                Modulus:
                    00:c2:09:c8:df:a0:16:d4:04:fe:6e:2a:dc:4b:86:
                    b3:fe:7b:96:ed:b8:78:a8:d7:e1:f5:b2:d9:a7:da:
                    09:72:6b:90:79:b4:1d:ef:d9:44:f0:ae:dc:ad:59:
                    b1:ef:99:68:f8:f1:f3:a3:fd:24:7b:64:5f:6c:ec:
                    9d:30:20:c7:14:08:60:e6:60:ce:d9:91:02:a6:43:
                    62:16:be:3f:42:2c:d8:18:27:d4:fb:5f:c0:d3:35:
                    01:4d:56:56:50:db:9b:8d:cf:0c:96:c4:68:8c:70:
                    9a:c9:1e:5b:90:bd:e2:98:93:89:c2:0a:22:24:98:
                    a4:6f:eb:46:2b:ea:5d:6a:a6:ab:0f:00:d9:8d:49:
                    73:92:98:98:85:2d:c2:a4:30:f7:82:9a:00:d6:c7:
                    48:8c:16:a9:cb:1a:40:4d:f5:9e:42:a1:cf:e2:81:
                    80:62:8e:98:17:6f:73:f6:28:87:60:f4:b6:07:82:
                    9c:1f:77:92:74:00:67:6e:c0:54:f2:37:56:f1:f7:
                    7f:9d:60:a5:f9:18:11:2e:d1:9a:30:82:02:84:f6:
                    3b:04:01:94:9e:ad:7f:39:da:a5:3b:c4:67:47:5d:
                    b6:64:37:ac:24:2d:83:ff:1c:b5:d6:9c:59:2d:d4:
                    06:37:f3:27:98:cf:28:93:d2:95:86:53:62:f9:b2:
                    2c:7f:e8:d1:85:b7:a9:bb:85:e6:fc:8f:0d:23:da:
                    52:87:e3:7a:40:48:fd:52:1e:83:ec:3e:c5:d3:5e:
                    23:c4:ee:f7:42:a4:fb:77:fe:f2:19:25:72:df:bd:
                    8a:34:a2:37:56:de:9c:5d:33:c7:02:00:1a:44:73:
                    9b:58:0b:92:8e:32:87:1b:81:96:60:9b:77:dd:13:
                    e8:a8:0a:d6:1d:cb:d2:4f:ca:2e:e1:d6:06:19:d6:
                    c4:12:0c:96:eb:64:bd:32:a7:3c:fb:fc:2c:ef:37:
                    35:1b:d6:c9:33:1b:20:eb:6f:89:81:a1:bf:48:f6:
                    8d:7b:53:f9:80:48:c1:f7:5d:76:be:52:66:e1:92:
                    d5:1e:6e:9f:e2:b4:1f:57:58:67:46:98:36:79:6b:
                    cd:85:9a:08:13:58:bf:75:04:15:8b:1d:0d:10:9e:
                    8e:35:8f:8a:2e:0d:67:27:53:dd:9a:30:14:4e:d1:
                    e7:4c:13:89:d4:69:ef:6b:75:af:a3:81:72:23:46:
                    79:27:cf:87:89:c5:14:b7:4d:2f:62:6b:10:f2:51:
                    83:0e:07:46:a9:f2:e5:dd:93:c2:82:45:e5:25:fb:
                    dd:6c:9d:2f:d9:1c:8d:78:0f:ad:c3:09:13:97:c4:
                    e7:a9:52:b9:e1:cd:9d:a9:8f:2e:2c:a9:11:74:ef:
                    a7:30:d3
                Exponent: 65537 (0x10001)
        X509v3 extensions:
            X509v3 Basic Constraints: 
                CA:FALSE
            Netscape Cert Type: 
                SSL Server
            Netscape Comment: 
                OpenSSL Generated Server Certificate
            X509v3 Subject Key Identifier: 
                74:14:02:F5:DB:76:61:22:1F:C9:19:74:FF:9E:D3:D4:DB:46:07:2B
            X509v3 Authority Key Identifier: 
                C5:B1:7C:DE:30:52:65:04:35:E0:C1:3A:96:22:A5:D0:33:E6:1E:99
            X509v3 Key Usage: critical
                Digital Signature, Key Encipherment
            X509v3 Extended Key Usage: 
                TLS Web Server Authentication
    Signature Algorithm: sha256WithRSAEncryption
    Signature Value:
        85:0d:82:c4:e3:10:4b:aa:85:5e:95:ab:bd:3a:da:64:6f:a0:
        aa:13:59:48:ba:b4:81:5e:b5:63:94:30:3b:57:50:91:02:6a:
        f4:0b:9d:37:0c:ed:87:d9:a5:e0:34:d6:f5:c7:c1:fc:81:70:
        63:8b:77:78:a1:21:52:57:ba:1b:c0:7c:db:a0:24:8b:f7:3a:
        53:b7:7c:09:76:74:0a:0d:36:51:5f:28:e6:5b:9b:05:f3:04:
        de:79:3e:c3:db:0d:83:32:f1:75:c5:6a:d4:b8:5c:cd:c7:b7:
        6a:22:53:30:b9:7b:86:04:eb:6f:81:c5:8d:6a:6e:d9:3c:b7:
        2c:2c:e2:4f:a5:30:76:34:6d:0c:f8:74:9a:8b:a0:8e:4e:9e:
        61:d6:63:fb:da:92:84:1b:3f:b8:2b:e3:3a:c2:98:c9:18:be:
        77:3c:51:bc:10:a5:25:b2:ed:cb:e0:aa:80:9c:71:dd:6f:00:
        28:e3:e5:df:fb:e4:b6:4b:91:cd:b1:75:50:f5:db:a1:4a:c5:
        12:2a:fc:f7:f1:ea:b2:73:72:8f:60:de:d6:f8:26:5f:c8:23:
        b4:e6:86:a0:cf:18:f0:0d:21:de:4d:0b:c3:c8:e5:4f:dd:dd:
        69:03:d3:de:5d:3c:83:be:dd:d0:1a:f2:73:86:a4:6f:b4:90:
        b0:de:2f:c3:e6:be:6e:b3:e6:91:9a:ea:f4:86:13:f8:38:8a:
        49:ab:48:dd:43:78:07:fe:01:bf:78:44:af:8b:b8:e3:73:fd:
        5a:b9:53:d7:5d:27:49:f1:56:9d:57:33:60:28:e4:e5:09:f5:
        f5:a7:f0:1d:cc:dd:de:38:04:20:8c:7a:9e:7f:7e:6d:81:46:
        f9:42:89:bb:56:f4:aa:8d:43:fb:96:0e:dd:43:fe:4f:09:6f:
        c4:3e:5a:5b:ce:52:fa:cc:ba:19:0a:74:27:28:64:22:f4:6d:
        2d:cb:b9:d1:d8:90:e1:9f:6d:9c:85:f4:0b:da:32:36:81:ff:
        f3:90:9b:5c:92:1d:59:f5:47:8f:66:a6:fe:fa:12:5d:a6:ee:
        92:de:c4:09:45:82:f9:24:ff:b2:9a:e6:2b:3c:87:44:08:a3:
        2c:9c:f9:26:79:cf:65:b5:04:3a:71:8b:06:1e:be:bd:ec:26:
        f7:1f:3e:4e:b5:ea:c9:0e:b8:2e:f6:94:e7:15:5e:e3:75:1a:
        b4:cb:2e:39:f1:98:ad:51:e0:9f:9d:a1:be:10:0e:fe:34:0e:
        ac:4b:d0:91:38:cd:fd:0f:0d:b9:4f:7f:6c:f6:bd:37:bc:6d:
        d4:2e:88:5a:a1:83:98:62:42:e2:2d:76:9c:1e:24:5e:5c:e7:
        ec:ad:46:a4:bd:bc:b2:4e
-----BEGIN CERTIFICATE-----
MIIFhjCCA26gAwIBAgICEAAwDQYJKoZIhvcNAQELBQAwTjELMAkGA1UEBhMCSU4x
DjAMBgNVBAgMBUJpaGFyMRAwDgYDVQQKDAdEZW1vT3JnMR0wGwYDVQQDDBREZW1v
IEludGVybWVkaWF0ZSBDQTAeFw0yNTA4MDUxMTE3MTFaFw0zNTA4MDMxMTE3MTFa
MAAwggIiMA0GCSqGSIb3DQEBAQUAA4ICDwAwggIKAoICAQDCCcjfoBbUBP5uKtxL
hrP+e5btuHio1+H1stmn2glya5B5tB3v2UTwrtytWbHvmWj48fOj/SR7ZF9s7J0w
IMcUCGDmYM7ZkQKmQ2IWvj9CLNgYJ9T7X8DTNQFNVlZQ25uNzwyWxGiMcJrJHluQ
veKYk4nCCiIkmKRv60Yr6l1qpqsPANmNSXOSmJiFLcKkMPeCmgDWx0iMFqnLGkBN
9Z5Coc/igYBijpgXb3P2KIdg9LYHgpwfd5J0AGduwFTyN1bx93+dYKX5GBEu0Zow
ggKE9jsEAZSerX852qU7xGdHXbZkN6wkLYP/HLXWnFkt1AY38yeYzyiT0pWGU2L5
six/6NGFt6m7heb8jw0j2lKH43pASP1SHoPsPsXTXiPE7vdCpPt3/vIZJXLfvYo0
ojdW3pxdM8cCABpEc5tYC5KOMocbgZZgm3fdE+ioCtYdy9JPyi7h1gYZ1sQSDJbr
ZL0ypzz7/CzvNzUb1skzGyDrb4mBob9I9o17U/mASMH3XXa+UmbhktUebp/itB9X
WGdGmDZ5a82FmggTWL91BBWLHQ0Qno41j4ouDWcnU92aMBRO0edME4nUae9rda+j
gXIjRnknz4eJxRS3TS9iaxDyUYMOB0ap8uXdk8KCReUl+91snS/ZHI14D63DCROX
xOepUrnhzZ2pjy4sqRF076cw0wIDAQABo4G7MIG4MAkGA1UdEwQCMAAwEQYJYIZI
AYb4QgEBBAQDAgZAMDMGCWCGSAGG+EIBDQQmFiRPcGVuU1NMIEdlbmVyYXRlZCBT
ZXJ2ZXIgQ2VydGlmaWNhdGUwHQYDVR0OBBYEFHQUAvXbdmEiH8kZdP+e09TbRgcr
MB8GA1UdIwQYMBaAFMWxfN4wUmUENeDBOpYipdAz5h6ZMA4GA1UdDwEB/wQEAwIF
oDATBgNVHSUEDDAKBggrBgEFBQcDATANBgkqhkiG9w0BAQsFAAOCAgEAhQ2CxOMQ
S6qFXpWrvTraZG+gqhNZSLq0gV61Y5QwO1dQkQJq9AudNwzth9ml4DTW9cfB/IFw
Y4t3eKEhUle6G8B826Aki/c6U7d8CXZ0Cg02UV8o5lubBfME3nk+w9sNgzLxdcVq
1Lhczce3aiJTMLl7hgTrb4HFjWpu2Ty3LCziT6UwdjRtDPh0mougjk6eYdZj+9qS
hBs/uCvjOsKYyRi+dzxRvBClJbLty+CqgJxx3W8AKOPl3/vktkuRzbF1UPXboUrF
Eir89/HqsnNyj2De1vgmX8gjtOaGoM8Y8A0h3k0Lw8jlT93daQPT3l08g77d0Bry
c4akb7SQsN4vw+a+brPmkZrq9IYT+DiKSatI3UN4B/4Bv3hEr4u443P9WrlT110n
SfFWnVczYCjk5Qn19afwHczd3jgEIIx6nn9+bYFG+UKJu1b0qo1D+5YO3UP+Twlv
xD5aW85S+sy6GQp0JyhkIvRtLcu50diQ4Z9tnIX0C9oyNoH/85CbXJIdWfVHj2am
/voSXabukt7ECUWC+ST/sprmKzyHRAijLJz5JnnPZbUEOnGLBh6+vewm9x8+TrXq
yQ64LvaU5xVe43UatMsuOfGYrVHgn52hvhAO/jQOrEvQkTjN/Q8NuU9/bPa9N7xt
1C6IWqGDmGJC4i12nB4kXlzn7K1GpL28sk4=
-----END CERTIFICATE-----
